target datalayout = "e-m:e-p270:32:32-p271:32:32-p272:64:64-i64:64-i128:128-f80:128-n8:16:32:64-S128"
target triple = "x86_64-unknown-linux-gnu"

%"class.grpc_core::experimental::Json" = type { %"class.std::variant" }
%"class.std::variant" = type { %"struct.std::__detail::__variant::_Variant_base.base", [7 x i8] }
%"struct.std::__detail::__variant::_Variant_base.base" = type { %"struct.std::__detail::__variant::_Move_assign_base.base" }
%"struct.std::__detail::__variant::_Move_assign_base.base" = type { %"struct.std::__detail::__variant::_Copy_assign_base.base" }
%"struct.std::__detail::__variant::_Copy_assign_base.base" = type { %"struct.std::__detail::__variant::_Move_ctor_base.base" }
%"struct.std::__detail::__variant::_Move_ctor_base.base" = type { %"struct.std::__detail::__variant::_Copy_ctor_base.base" }
%"struct.std::__detail::__variant::_Copy_ctor_base.base" = type { %"struct.std::__detail::__variant::_Variant_storage.base" }
%"struct.std::__detail::__variant::_Variant_storage.base" = type { %"union.std::__detail::__variant::_Variadic_union", i8 }
%"union.std::__detail::__variant::_Variadic_union" = type { %"union.std::__detail::__variant::_Variadic_union.1" }
%"union.std::__detail::__variant::_Variadic_union.1" = type { %"union.std::__detail::__variant::_Variadic_union.3" }
%"union.std::__detail::__variant::_Variadic_union.3" = type { %"union.std::__detail::__variant::_Variadic_union.5" }
%"union.std::__detail::__variant::_Variadic_union.5" = type { %"union.std::__detail::__variant::_Variadic_union.8" }
%"union.std::__detail::__variant::_Variadic_union.8" = type { %"struct.std::__detail::__variant::_Uninitialized.9" }
%"struct.std::__detail::__variant::_Uninitialized.9" = type { %"struct.__gnu_cxx::__aligned_membuf.10" }
%"struct.__gnu_cxx::__aligned_membuf.10" = type { [48 x i8] }
%"class.grpc_core::(anonymous namespace)::JsonReader" = type { ptr, ptr, i64, i32, i8, i8, i16, i16, %"class.std::vector", i8, i8, i8, [5 x i8], %"class.grpc_core::experimental::Json", %"class.std::vector.15", %"class.std::__cxx11::basic_string", %"class.std::__cxx11::basic_string" }
%"class.std::vector" = type { %"struct.std::_Vector_base" }
%"struct.std::_Vector_base" = type { %"struct.std::_Vector_base<std::__cxx11::basic_string<char>, std::allocator<std::__cxx11::basic_string<char>>>::_Vector_impl" }
%"struct.std::_Vector_base<std::__cxx11::basic_string<char>, std::allocator<std::__cxx11::basic_string<char>>>::_Vector_impl" = type { %"struct.std::_Vector_base<std::__cxx11::basic_string<char>, std::allocator<std::__cxx11::basic_string<char>>>::_Vector_impl_data" }
%"struct.std::_Vector_base<std::__cxx11::basic_string<char>, std::allocator<std::__cxx11::basic_string<char>>>::_Vector_impl_data" = type { ptr, ptr, ptr }
%"class.std::vector.15" = type { %"struct.std::_Vector_base.16" }
%"struct.std::_Vector_base.16" = type { %"struct.std::_Vector_base<grpc_core::(anonymous namespace)::JsonReader::Scope, std::allocator<grpc_core::(anonymous namespace)::JsonReader::Scope>>::_Vector_impl" }
%"struct.std::_Vector_base<grpc_core::(anonymous namespace)::JsonReader::Scope, std::allocator<grpc_core::(anonymous namespace)::JsonReader::Scope>>::_Vector_impl" = type { %"struct.std::_Vector_base<grpc_core::(anonymous namespace)::JsonReader::Scope, std::allocator<grpc_core::(anonymous namespace)::JsonReader::Scope>>::_Vector_impl_data" }
%"struct.std::_Vector_base<grpc_core::(anonymous namespace)::JsonReader::Scope, std::allocator<grpc_core::(anonymous namespace)::JsonReader::Scope>>::_Vector_impl_data" = type { ptr, ptr, ptr }
%"class.std::__cxx11::basic_string" = type { %"struct.std::__cxx11::basic_string<char>::_Alloc_hider", i64, %union.anon.23 }
%"struct.std::__cxx11::basic_string<char>::_Alloc_hider" = type { ptr }
%union.anon.23 = type { i64, [8 x i8] }

; Function Attrs: mustprogress uwtable
define internal noundef zeroext i1 @_ZN9grpc_core12_GLOBAL__N_110JsonReader13StringAddCharEj(ptr noundef nonnull align 8 dereferenceable(216) %this, i32 noundef %c) #4 align 2 {
entry:
  %retval = alloca i1, align 1
  %this.addr = alloca ptr, align 8
  %c.addr = alloca i32, align 4
  store ptr %this, ptr %this.addr, align 8
  store i32 %c, ptr %c.addr, align 4
  %this1 = load ptr, ptr %this.addr, align 8
  %utf8_bytes_remaining_ = getelementptr inbounds %"class.grpc_core::(anonymous namespace)::JsonReader", ptr %this1, i32 0, i32 10
  %0 = load i8, ptr %utf8_bytes_remaining_, align 1
  %conv = zext i8 %0 to i32
  %cmp = icmp eq i32 %conv, 0
  br i1 %cmp, label %if.then, label %if.else27

if.then:                                          ; preds = %entry
  %1 = load i32, ptr %c.addr, align 4
  %and = and i32 %1, 128
  %cmp2 = icmp eq i32 %and, 0
  br i1 %cmp2, label %if.then3, label %if.else

if.then3:                                         ; preds = %if.then
  %utf8_bytes_remaining_4 = getelementptr inbounds %"class.grpc_core::(anonymous namespace)::JsonReader", ptr %this1, i32 0, i32 10
  store i8 0, ptr %utf8_bytes_remaining_4, align 1
  br label %if.end25

if.else:                                          ; preds = %if.then
  %2 = load i32, ptr %c.addr, align 4
  %and5 = and i32 %2, 224
  %cmp6 = icmp eq i32 %and5, 192
  br i1 %cmp6, label %land.lhs.true, label %if.else10

land.lhs.true:                                    ; preds = %if.else
  %3 = load i32, ptr %c.addr, align 4
  %cmp7 = icmp uge i32 %3, 194
  br i1 %cmp7, label %if.then8, label %if.else10

if.then8:                                         ; preds = %land.lhs.true
  %utf8_bytes_remaining_9 = getelementptr inbounds %"class.grpc_core::(anonymous namespace)::JsonReader", ptr %this1, i32 0, i32 10
  store i8 1, ptr %utf8_bytes_remaining_9, align 1
  br label %if.end24

if.else10:                                        ; preds = %land.lhs.true, %if.else
  %4 = load i32, ptr %c.addr, align 4
  %and11 = and i32 %4, 240
  %cmp12 = icmp eq i32 %and11, 224
  br i1 %cmp12, label %if.then13, label %if.else15

if.then13:                                        ; preds = %if.else10
  %utf8_bytes_remaining_14 = getelementptr inbounds %"class.grpc_core::(anonymous namespace)::JsonReader", ptr %this1, i32 0, i32 10
  store i8 2, ptr %utf8_bytes_remaining_14, align 1
  br label %if.end23

if.else15:                                        ; preds = %if.else10
  %5 = load i32, ptr %c.addr, align 4
  %and16 = and i32 %5, 248
  %cmp17 = icmp eq i32 %and16, 240
  br i1 %cmp17, label %land.lhs.true18, label %if.else22

land.lhs.true18:                                  ; preds = %if.else15
  %6 = load i32, ptr %c.addr, align 4
  %cmp19 = icmp ule i32 %6, 244
  br i1 %cmp19, label %if.then20, label %if.else22

if.then20:                                        ; preds = %land.lhs.true18
  %utf8_bytes_remaining_21 = getelementptr inbounds %"class.grpc_core::(anonymous namespace)::JsonReader", ptr %this1, i32 0, i32 10
  store i8 3, ptr %utf8_bytes_remaining_21, align 1
  br label %if.end

if.else22:                                        ; preds = %land.lhs.true18, %if.else15
  store i1 false, ptr %retval, align 1
  br label %return

if.end:                                           ; preds = %if.then20
  br label %if.end23

if.end23:                                         ; preds = %if.end, %if.then13
  br label %if.end24

if.end24:                                         ; preds = %if.end23, %if.then8
  br label %if.end25

if.end25:                                         ; preds = %if.end24, %if.then3
  %7 = load i32, ptr %c.addr, align 4
  %conv26 = trunc i32 %7 to i8
  %utf8_first_byte_ = getelementptr inbounds %"class.grpc_core::(anonymous namespace)::JsonReader", ptr %this1, i32 0, i32 11
  store i8 %conv26, ptr %utf8_first_byte_, align 2
  br label %if.end86

if.else27:                                        ; preds = %entry
  %utf8_bytes_remaining_28 = getelementptr inbounds %"class.grpc_core::(anonymous namespace)::JsonReader", ptr %this1, i32 0, i32 10
  %8 = load i8, ptr %utf8_bytes_remaining_28, align 1
  %conv29 = zext i8 %8 to i32
  %cmp30 = icmp eq i32 %conv29, 1
  br i1 %cmp30, label %if.then31, label %if.else37

if.then31:                                        ; preds = %if.else27
  %9 = load i32, ptr %c.addr, align 4
  %and32 = and i32 %9, 192
  %cmp33 = icmp ne i32 %and32, 128
  br i1 %cmp33, label %if.then34, label %if.end35

if.then34:                                        ; preds = %if.then31
  store i1 false, ptr %retval, align 1
  br label %return

if.end35:                                         ; preds = %if.then31
  %utf8_bytes_remaining_36 = getelementptr inbounds %"class.grpc_core::(anonymous namespace)::JsonReader", ptr %this1, i32 0, i32 10
  %10 = load i8, ptr %utf8_bytes_remaining_36, align 1
  %dec = add i8 %10, -1
  store i8 %dec, ptr %utf8_bytes_remaining_36, align 1
  br label %if.end85

if.else37:                                        ; preds = %if.else27
  %utf8_bytes_remaining_38 = getelementptr inbounds %"class.grpc_core::(anonymous namespace)::JsonReader", ptr %this1, i32 0, i32 10
  %11 = load i8, ptr %utf8_bytes_remaining_38, align 1
  %conv39 = zext i8 %11 to i32
  %cmp40 = icmp eq i32 %conv39, 2
  br i1 %cmp40, label %if.then41, label %if.else59

if.then41:                                        ; preds = %if.else37
  %12 = load i32, ptr %c.addr, align 4
  %and42 = and i32 %12, 192
  %cmp43 = icmp ne i32 %and42, 128
  br i1 %cmp43, label %if.then55, label %lor.lhs.false

lor.lhs.false:                                    ; preds = %if.then41
  %utf8_first_byte_44 = getelementptr inbounds %"class.grpc_core::(anonymous namespace)::JsonReader", ptr %this1, i32 0, i32 11
  %13 = load i8, ptr %utf8_first_byte_44, align 2
  %conv45 = zext i8 %13 to i32
  %cmp46 = icmp eq i32 %conv45, 224
  br i1 %cmp46, label %land.lhs.true47, label %lor.lhs.false49

land.lhs.true47:                                  ; preds = %lor.lhs.false
  %14 = load i32, ptr %c.addr, align 4
  %cmp48 = icmp ult i32 %14, 160
  br i1 %cmp48, label %if.then55, label %lor.lhs.false49

lor.lhs.false49:                                  ; preds = %land.lhs.true47, %lor.lhs.false
  %utf8_first_byte_50 = getelementptr inbounds %"class.grpc_core::(anonymous namespace)::JsonReader", ptr %this1, i32 0, i32 11
  %15 = load i8, ptr %utf8_first_byte_50, align 2
  %conv51 = zext i8 %15 to i32
  %cmp52 = icmp eq i32 %conv51, 237
  br i1 %cmp52, label %land.lhs.true53, label %if.end56

land.lhs.true53:                                  ; preds = %lor.lhs.false49
  %16 = load i32, ptr %c.addr, align 4
  %cmp54 = icmp ugt i32 %16, 159
  br i1 %cmp54, label %if.then55, label %if.end56

if.then55:                                        ; preds = %land.lhs.true53, %land.lhs.true47, %if.then41
  store i1 false, ptr %retval, align 1
  br label %return

if.end56:                                         ; preds = %land.lhs.true53, %lor.lhs.false49
  %utf8_bytes_remaining_57 = getelementptr inbounds %"class.grpc_core::(anonymous namespace)::JsonReader", ptr %this1, i32 0, i32 10
  %17 = load i8, ptr %utf8_bytes_remaining_57, align 1
  %dec58 = add i8 %17, -1
  store i8 %dec58, ptr %utf8_bytes_remaining_57, align 1
  br label %if.end84

if.else59:                                        ; preds = %if.else37
  %utf8_bytes_remaining_60 = getelementptr inbounds %"class.grpc_core::(anonymous namespace)::JsonReader", ptr %this1, i32 0, i32 10
  %18 = load i8, ptr %utf8_bytes_remaining_60, align 1
  %conv61 = zext i8 %18 to i32
  %cmp62 = icmp eq i32 %conv61, 3
  br i1 %cmp62, label %if.then63, label %if.else82

if.then63:                                        ; preds = %if.else59
  %19 = load i32, ptr %c.addr, align 4
  %and64 = and i32 %19, 192
  %cmp65 = icmp ne i32 %and64, 128
  br i1 %cmp65, label %if.then78, label %lor.lhs.false66

lor.lhs.false66:                                  ; preds = %if.then63
  %utf8_first_byte_67 = getelementptr inbounds %"class.grpc_core::(anonymous namespace)::JsonReader", ptr %this1, i32 0, i32 11
  %20 = load i8, ptr %utf8_first_byte_67, align 2
  %conv68 = zext i8 %20 to i32
  %cmp69 = icmp eq i32 %conv68, 240
  br i1 %cmp69, label %land.lhs.true70, label %lor.lhs.false72

land.lhs.true70:                                  ; preds = %lor.lhs.false66
  %21 = load i32, ptr %c.addr, align 4
  %cmp71 = icmp ult i32 %21, 144
  br i1 %cmp71, label %if.then78, label %lor.lhs.false72

lor.lhs.false72:                                  ; preds = %land.lhs.true70, %lor.lhs.false66
  %utf8_first_byte_73 = getelementptr inbounds %"class.grpc_core::(anonymous namespace)::JsonReader", ptr %this1, i32 0, i32 11
  %22 = load i8, ptr %utf8_first_byte_73, align 2
  %conv74 = zext i8 %22 to i32
  %cmp75 = icmp eq i32 %conv74, 244
  br i1 %cmp75, label %land.lhs.true76, label %if.end79

land.lhs.true76:                                  ; preds = %lor.lhs.false72
  %23 = load i32, ptr %c.addr, align 4
  %cmp77 = icmp ugt i32 %23, 143
  br i1 %cmp77, label %if.then78, label %if.end79

if.then78:                                        ; preds = %land.lhs.true76, %land.lhs.true70, %if.then63
  store i1 false, ptr %retval, align 1
  br label %return

if.end79:                                         ; preds = %land.lhs.true76, %lor.lhs.false72
  %utf8_bytes_remaining_80 = getelementptr inbounds %"class.grpc_core::(anonymous namespace)::JsonReader", ptr %this1, i32 0, i32 10
  %24 = load i8, ptr %utf8_bytes_remaining_80, align 1
  %dec81 = add i8 %24, -1
  store i8 %dec81, ptr %utf8_bytes_remaining_80, align 1
  br label %if.end83

if.else82:                                        ; preds = %if.else59
  call void @abort() #15
  unreachable

if.end83:                                         ; preds = %if.end79
  br label %if.end84

if.end84:                                         ; preds = %if.end83, %if.end56
  br label %if.end85

if.end85:                                         ; preds = %if.end84, %if.end35
  br label %if.end86

if.end86:                                         ; preds = %if.end85, %if.end25
  %string_ = getelementptr inbounds %"class.grpc_core::(anonymous namespace)::JsonReader", ptr %this1, i32 0, i32 16
  %25 = load i32, ptr %c.addr, align 4
  %conv87 = trunc i32 %25 to i8
  call void @_ZNSt7__cxx1112basic_stringIcSt11char_traitsIcESaIcEE9push_backEc(ptr noundef nonnull align 8 dereferenceable(32) %string_, i8 noundef signext %conv87)
  store i1 true, ptr %retval, align 1
  br label %return

return:                                           ; preds = %if.end86, %if.then78, %if.then55, %if.then34, %if.else22
  %26 = load i1, ptr %retval, align 1
  ret i1 %26
}