; Function Attrs: mustprogress uwtable
define internal fastcc noundef zeroext i1 @_ZN9grpc_core12_GLOBAL__N_110JsonReader13StringAddCharEj(ptr noundef nonnull align 8 dereferenceable(216) %this, i32 noundef %c) unnamed_addr #3 align 2 {
entry:
  %utf8_bytes_remaining_ = getelementptr inbounds i8, ptr %this, i64 65
  %0 = load i8, ptr %utf8_bytes_remaining_, align 1
  switch i8 %0, label %if.else82 [
    i8 0, label %if.then
    i8 1, label %if.then31
    i8 2, label %if.then41
    i8 3, label %if.then63
  ]

if.then:                                          ; preds = %entry
  %and = and i32 %c, 128
  %cmp2 = icmp eq i32 %and, 0
  br i1 %cmp2, label %if.end25, label %if.else

if.else:                                          ; preds = %if.then
  %and5 = and i32 %c, 224
  %cmp6 = icmp eq i32 %and5, 192
  %cmp7 = icmp ugt i32 %c, 193
  %or.cond = and i1 %cmp7, %cmp6
  br i1 %or.cond, label %if.end25, label %if.else10

if.else10:                                        ; preds = %if.else
  %and11 = and i32 %c, 240
  %cmp12 = icmp eq i32 %and11, 224
  br i1 %cmp12, label %if.end25, label %if.else15

if.else15:                                        ; preds = %if.else10
  %and16 = and i32 %c, 248
  %cmp17 = icmp eq i32 %and16, 240
  %cmp19 = icmp ult i32 %c, 245
  %or.cond1 = and i1 %cmp19, %cmp17
  br i1 %or.cond1, label %if.end25, label %return

if.end25:                                         ; preds = %if.else15, %if.else10, %if.else, %if.then
  %.sink = phi i8 [ 0, %if.then ], [ 1, %if.else ], [ 2, %if.else10 ], [ 3, %if.else15 ]
  store i8 %.sink, ptr %utf8_bytes_remaining_, align 1
  %conv26 = trunc i32 %c to i8
  %utf8_first_byte_ = getelementptr inbounds i8, ptr %this, i64 66
  store i8 %conv26, ptr %utf8_first_byte_, align 2
  br label %if.end86

if.then31:                                        ; preds = %entry
  %and32 = and i32 %c, 192
  %cmp33.not = icmp eq i32 %and32, 128
  br i1 %cmp33.not, label %if.end35, label %return

if.end35:                                         ; preds = %if.then31
  store i8 0, ptr %utf8_bytes_remaining_, align 1
  br label %if.end86

if.then41:                                        ; preds = %entry
  %and42 = and i32 %c, 192
  %cmp43.not = icmp eq i32 %and42, 128
  br i1 %cmp43.not, label %lor.lhs.false, label %return

lor.lhs.false:                                    ; preds = %if.then41
  %utf8_first_byte_44 = getelementptr inbounds i8, ptr %this, i64 66
  %1 = load i8, ptr %utf8_first_byte_44, align 2
  %cmp46 = icmp eq i8 %1, -32
  %cmp48 = icmp ult i32 %c, 160
  %or.cond2 = and i1 %cmp48, %cmp46
  br i1 %or.cond2, label %return, label %lor.lhs.false49

lor.lhs.false49:                                  ; preds = %lor.lhs.false
  %cmp52 = icmp eq i8 %1, -19
  %cmp54 = icmp ugt i32 %c, 159
  %or.cond3 = and i1 %cmp54, %cmp52
  br i1 %or.cond3, label %return, label %if.end56

if.end56:                                         ; preds = %lor.lhs.false49
  store i8 1, ptr %utf8_bytes_remaining_, align 1
  br label %if.end86

if.then63:                                        ; preds = %entry
  %and64 = and i32 %c, 192
  %cmp65.not = icmp eq i32 %and64, 128
  br i1 %cmp65.not, label %lor.lhs.false66, label %return

lor.lhs.false66:                                  ; preds = %if.then63
  %utf8_first_byte_67 = getelementptr inbounds i8, ptr %this, i64 66
  %2 = load i8, ptr %utf8_first_byte_67, align 2
  %cmp69 = icmp eq i8 %2, -16
  %cmp71 = icmp ult i32 %c, 144
  %or.cond4 = and i1 %cmp71, %cmp69
  br i1 %or.cond4, label %return, label %lor.lhs.false72

lor.lhs.false72:                                  ; preds = %lor.lhs.false66
  %cmp75 = icmp eq i8 %2, -12
  %cmp77 = icmp ugt i32 %c, 143
  %or.cond5 = and i1 %cmp77, %cmp75
  br i1 %or.cond5, label %return, label %if.end79

if.end79:                                         ; preds = %lor.lhs.false72
  store i8 2, ptr %utf8_bytes_remaining_, align 1
  br label %if.end86

if.else82:                                        ; preds = %entry
  tail call void @abort() #18
  unreachable

if.end86:                                         ; preds = %if.end35, %if.end79, %if.end56, %if.end25
  %string_ = getelementptr inbounds i8, ptr %this, i64 184
  %conv87 = trunc i32 %c to i8
  tail call void @_ZNSt7__cxx1112basic_stringIcSt11char_traitsIcESaIcEE9push_backEc(ptr noundef nonnull align 8 dereferenceable(32) %string_, i8 noundef signext %conv87)
  br label %return

return:                                           ; preds = %if.then63, %lor.lhs.false66, %lor.lhs.false72, %if.then41, %lor.lhs.false, %lor.lhs.false49, %if.then31, %if.else15, %if.end86
  %retval.0 = phi i1 [ true, %if.end86 ], [ false, %if.else15 ], [ false, %if.then31 ], [ false, %lor.lhs.false49 ], [ false, %lor.lhs.false ], [ false, %if.then41 ], [ false, %lor.lhs.false72 ], [ false, %lor.lhs.false66 ], [ false, %if.then63 ]
  ret i1 %retval.0
}